target datalayout = "e-m:e-p270:32:32-p271:32:32-p272:64:64-i64:64-i128:128-f80:128-n8:16:32:64-S128"
target triple = "x86_64-pc-linux-gnu"

; Function Attrs: mustprogress nounwind uwtable
define linkonce_odr dso_local noundef i64 @_ZNSt14numeric_limitsImE3maxEv() #5 comdat align 2 {
  ret i64 -1
}

; Function Attrs: mustprogress nounwind uwtable
define linkonce_odr dso_local noundef i32 @_ZNSt14numeric_limitsIjE3maxEv() #5 comdat align 2 {
  ret i32 -1
}

; Function Attrs: mustprogress uwtable
define internal void @_ZN12_GLOBAL__N_127Numbers_TestFastPrints_Test8TestBodyEv(ptr noundef nonnull align 8 dereferenceable(16) %0) unnamed_addr #6 align 2 {
  %2 = alloca ptr, align 8
  %3 = alloca i32, align 4
  %4 = alloca i32, align 4
  %5 = alloca i32, align 4
  store ptr %0, ptr %2, align 8, !tbaa !398
  call void @llvm.lifetime.start.p0(i64 4, ptr %3) #3
  store i32 -100, ptr %3, align 4, !tbaa !17
  br label %6

6:                                                ; preds = %14, %1
  %7 = load i32, ptr %3, align 4, !tbaa !17
  %8 = icmp sle i32 %7, 100
  br i1 %8, label %10, label %9

9:                                                ; preds = %6
  call void @llvm.lifetime.end.p0(i64 4, ptr %3) #3
  br label %17

10:                                               ; preds = %6
  %11 = load i32, ptr %3, align 4, !tbaa !17
  call void @_ZN12_GLOBAL__N_110CheckInt32Ei(i32 noundef %11)
  %12 = load i32, ptr %3, align 4, !tbaa !17
  %13 = sext i32 %12 to i64
  call void @_ZN12_GLOBAL__N_110CheckInt64El(i64 noundef %13)
  br label %14

14:                                               ; preds = %10
  %15 = load i32, ptr %3, align 4, !tbaa !17
  %16 = add nsw i32 %15, 1
  store i32 %16, ptr %3, align 4, !tbaa !17
  br label %6, !llvm.loop !400

17:                                               ; preds = %9
  call void @llvm.lifetime.start.p0(i64 4, ptr %4) #3
  store i32 0, ptr %4, align 4, !tbaa !17
  br label %18

18:                                               ; preds = %26, %17
  %19 = load i32, ptr %4, align 4, !tbaa !17
  %20 = icmp sle i32 %19, 100
  br i1 %20, label %22, label %21

21:                                               ; preds = %18
  call void @llvm.lifetime.end.p0(i64 4, ptr %4) #3
  br label %29

22:                                               ; preds = %18
  %23 = load i32, ptr %4, align 4, !tbaa !17
  call void @_ZN12_GLOBAL__N_111CheckUInt32Ej(i32 noundef %23)
  %24 = load i32, ptr %4, align 4, !tbaa !17
  %25 = sext i32 %24 to i64
  call void @_ZN12_GLOBAL__N_111CheckUInt64Em(i64 noundef %25)
  br label %26

26:                                               ; preds = %22
  %27 = load i32, ptr %4, align 4, !tbaa !17
  %28 = add nsw i32 %27, 1
  store i32 %28, ptr %4, align 4, !tbaa !17
  br label %18, !llvm.loop !401

29:                                               ; preds = %21
  call void @_ZN12_GLOBAL__N_110CheckInt32Ei(i32 noundef -2147483648)
  call void @_ZN12_GLOBAL__N_110CheckInt32Ei(i32 noundef 2147483647)
  call void @_ZN12_GLOBAL__N_110CheckInt64El(i64 noundef -9223372036854775808)
  call void @_ZN12_GLOBAL__N_110CheckInt64El(i64 noundef 1000000000)
  call void @_ZN12_GLOBAL__N_110CheckInt64El(i64 noundef 9999999999)
  call void @_ZN12_GLOBAL__N_110CheckInt64El(i64 noundef 100000000000000)
  call void @_ZN12_GLOBAL__N_110CheckInt64El(i64 noundef 999999999999999)
  call void @_ZN12_GLOBAL__N_110CheckInt64El(i64 noundef 1000000000000000000)
  call void @_ZN12_GLOBAL__N_110CheckInt64El(i64 noundef 1199999999999999999)
  call void @_ZN12_GLOBAL__N_110CheckInt64El(i64 noundef -700000000000000000)
  call void @_ZN12_GLOBAL__N_110CheckInt64El(i64 noundef 9223372036854775807)
  %30 = call noundef i32 @_ZNSt14numeric_limitsIjE3maxEv() #3
  call void @_ZN12_GLOBAL__N_111CheckUInt32Ej(i32 noundef %30)
  call void @_ZN12_GLOBAL__N_111CheckUInt64Em(i64 noundef 1000000000)
  call void @_ZN12_GLOBAL__N_111CheckUInt64Em(i64 noundef 9999999999)
  call void @_ZN12_GLOBAL__N_111CheckUInt64Em(i64 noundef 100000000000000)
  call void @_ZN12_GLOBAL__N_111CheckUInt64Em(i64 noundef 999999999999999)
  call void @_ZN12_GLOBAL__N_111CheckUInt64Em(i64 noundef 1000000000000000000)
  call void @_ZN12_GLOBAL__N_111CheckUInt64Em(i64 noundef 1199999999999999999)
  %31 = call noundef i64 @_ZNSt14numeric_limitsImE3maxEv() #3
  call void @_ZN12_GLOBAL__N_111CheckUInt64Em(i64 noundef %31)
  call void @llvm.lifetime.start.p0(i64 4, ptr %5) #3
  store i32 0, ptr %5, align 4, !tbaa !17
  br label %32

32:                                               ; preds = %39, %29
  %33 = load i32, ptr %5, align 4, !tbaa !17
  %34 = icmp slt i32 %33, 10000
  br i1 %34, label %36, label %35

35:                                               ; preds = %32
  call void @llvm.lifetime.end.p0(i64 4, ptr %5) #3
  br label %42

36:                                               ; preds = %32
  %37 = load i32, ptr %5, align 4, !tbaa !17
  %38 = sext i32 %37 to i64
  call void @_ZN12_GLOBAL__N_110CheckHex64Em(i64 noundef %38)
  br label %39

39:                                               ; preds = %36
  %40 = load i32, ptr %5, align 4, !tbaa !17
  %41 = add nsw i32 %40, 1
  store i32 %41, ptr %5, align 4, !tbaa !17
  br label %32, !llvm.loop !402

42:                                               ; preds = %35
  call void @_ZN12_GLOBAL__N_110CheckHex64Em(i64 noundef 1311768467463790320)
  ret void
}