; Function Attrs: mustprogress uwtable
define internal void @_ZN12_GLOBAL__N_127Numbers_TestFastPrints_Test8TestBodyEv(ptr nonnull readnone align 8 captures(none) %0) unnamed_addr #4 align 2 {
  br label %2

2:                                                ; preds = %1, %2
  %indvars.iv = phi i64 [ -100, %1 ], [ %indvars.iv.next, %2 ]
  %3 = trunc nsw i64 %indvars.iv to i32
  tail call fastcc void @_ZN12_GLOBAL__N_110CheckInt32Ei(i32 noundef %3)
  tail call fastcc void @_ZN12_GLOBAL__N_110CheckInt64El(i64 noundef %indvars.iv)
  %indvars.iv.next = add nsw i64 %indvars.iv, 1
  %exitcond.not = icmp eq i64 %indvars.iv.next, 101
  br i1 %exitcond.not, label %.preheader, label %2, !llvm.loop !183

4:                                                ; preds = %.preheader
  tail call fastcc void @_ZN12_GLOBAL__N_110CheckInt32Ei(i32 noundef -2147483648)
  tail call fastcc void @_ZN12_GLOBAL__N_110CheckInt32Ei(i32 noundef 2147483647)
  tail call fastcc void @_ZN12_GLOBAL__N_110CheckInt64El(i64 noundef -9223372036854775808)
  tail call fastcc void @_ZN12_GLOBAL__N_110CheckInt64El(i64 noundef 1000000000)
  tail call fastcc void @_ZN12_GLOBAL__N_110CheckInt64El(i64 noundef 9999999999)
  tail call fastcc void @_ZN12_GLOBAL__N_110CheckInt64El(i64 noundef 100000000000000)
  tail call fastcc void @_ZN12_GLOBAL__N_110CheckInt64El(i64 noundef 999999999999999)
  tail call fastcc void @_ZN12_GLOBAL__N_110CheckInt64El(i64 noundef 1000000000000000000)
  tail call fastcc void @_ZN12_GLOBAL__N_110CheckInt64El(i64 noundef 1199999999999999999)
  tail call fastcc void @_ZN12_GLOBAL__N_110CheckInt64El(i64 noundef -700000000000000000)
  tail call fastcc void @_ZN12_GLOBAL__N_110CheckInt64El(i64 noundef 9223372036854775807)
  tail call fastcc void @_ZN12_GLOBAL__N_111CheckUInt32Ej(i32 noundef -1)
  tail call fastcc void @_ZN12_GLOBAL__N_111CheckUInt64Em(i64 noundef 1000000000)
  tail call fastcc void @_ZN12_GLOBAL__N_111CheckUInt64Em(i64 noundef 9999999999)
  tail call fastcc void @_ZN12_GLOBAL__N_111CheckUInt64Em(i64 noundef 100000000000000)
  tail call fastcc void @_ZN12_GLOBAL__N_111CheckUInt64Em(i64 noundef 999999999999999)
  tail call fastcc void @_ZN12_GLOBAL__N_111CheckUInt64Em(i64 noundef 1000000000000000000)
  tail call fastcc void @_ZN12_GLOBAL__N_111CheckUInt64Em(i64 noundef 1199999999999999999)
  tail call fastcc void @_ZN12_GLOBAL__N_111CheckUInt64Em(i64 noundef -1)
  br label %7

.preheader:                                       ; preds = %2, %.preheader
  %indvars.iv17 = phi i64 [ %indvars.iv.next18, %.preheader ], [ 0, %2 ]
  %5 = trunc nuw nsw i64 %indvars.iv17 to i32
  tail call fastcc void @_ZN12_GLOBAL__N_111CheckUInt32Ej(i32 noundef %5)
  tail call fastcc void @_ZN12_GLOBAL__N_111CheckUInt64Em(i64 noundef %indvars.iv17)
  %indvars.iv.next18 = add nuw nsw i64 %indvars.iv17, 1
  %exitcond20.not = icmp eq i64 %indvars.iv.next18, 101
  br i1 %exitcond20.not, label %4, label %.preheader, !llvm.loop !184

6:                                                ; preds = %7
  tail call fastcc void @_ZN12_GLOBAL__N_110CheckHex64Em(i64 noundef 1311768467463790320)
  ret void

7:                                                ; preds = %4, %7
  %indvars.iv21 = phi i64 [ 0, %4 ], [ %indvars.iv.next22, %7 ]
  tail call fastcc void @_ZN12_GLOBAL__N_110CheckHex64Em(i64 noundef %indvars.iv21)
  %indvars.iv.next22 = add nuw nsw i64 %indvars.iv21, 1
  %exitcond24.not = icmp eq i64 %indvars.iv.next22, 10000
  br i1 %exitcond24.not, label %6, label %7, !llvm.loop !185
}